target datalayout = "e-m:e-p270:32:32-p271:32:32-p272:64:64-i64:64-i128:128-f80:128-n8:16:32:64-S128"
target triple = "x86_64-pc-linux-gnu"

%struct.hb_font_t = type { %struct.hb_object_header_t, i32, i32, ptr, ptr, i32, i32, float, float, i8, i32, i32, float, float, float, float, i64, i64, i32, i32, float, i32, i32, ptr, ptr, ptr, ptr, ptr, %struct.hb_shaper_object_dataset_t }
%struct.hb_object_header_t = type { %struct.hb_reference_count_t, %struct.hb_atomic_int_t, %struct.hb_atomic_ptr_t }
%struct.hb_reference_count_t = type { %struct.hb_atomic_int_t }
%struct.hb_atomic_int_t = type { i32 }
%struct.hb_atomic_ptr_t = type { ptr }
%struct.hb_shaper_object_dataset_t = type { ptr, %struct.hb_shaper_lazy_loader_t, %struct.hb_shaper_lazy_loader_t.12 }
%struct.hb_shaper_lazy_loader_t = type { %struct.hb_lazy_loader_t }
%struct.hb_lazy_loader_t = type { %struct.hb_atomic_ptr_t.11 }
%struct.hb_atomic_ptr_t.11 = type { ptr }
%struct.hb_shaper_lazy_loader_t.12 = type { %struct.hb_lazy_loader_t.13 }
%struct.hb_lazy_loader_t.13 = type { %struct.hb_atomic_ptr_t.15 }
%struct.hb_atomic_ptr_t.15 = type { ptr }
%struct.hb_array_t.16 = type { ptr, i32, i32 }
%struct.hb_array_t.20 = type { ptr, i32, i32 }

; Function Attrs: mustprogress nounwind uwtable
define linkonce_odr dso_local void @_ZN10hb_array_tIKiEC2EPS0_j(ptr noundef nonnull align 8 dereferenceable(16) %0, ptr noundef %1, i32 noundef %2) unnamed_addr #0 comdat align 2 {
  %4 = alloca ptr, align 8
  %5 = alloca ptr, align 8
  %6 = alloca i32, align 4
  store ptr %0, ptr %4, align 8, !tbaa !310
  store ptr %1, ptr %5, align 8, !tbaa !76
  store i32 %2, ptr %6, align 4, !tbaa !11
  %7 = load ptr, ptr %4, align 8
  %8 = getelementptr inbounds nuw %struct.hb_array_t.16, ptr %7, i32 0, i32 0
  %9 = load ptr, ptr %5, align 8, !tbaa !76
  store ptr %9, ptr %8, align 8, !tbaa !133
  %10 = getelementptr inbounds nuw %struct.hb_array_t.16, ptr %7, i32 0, i32 1
  %11 = load i32, ptr %6, align 4, !tbaa !11
  store i32 %11, ptr %10, align 8, !tbaa !135
  %12 = getelementptr inbounds nuw %struct.hb_array_t.16, ptr %7, i32 0, i32 2
  store i32 0, ptr %12, align 4, !tbaa !312
  ret void
}

; Function Attrs: mustprogress nounwind uwtable
define linkonce_odr dso_local void @_ZN10hb_array_tIiEC2EPij(ptr noundef nonnull align 8 dereferenceable(16) %0, ptr noundef %1, i32 noundef %2) unnamed_addr #0 comdat align 2 {
  %4 = alloca ptr, align 8
  %5 = alloca ptr, align 8
  %6 = alloca i32, align 4
  store ptr %0, ptr %4, align 8, !tbaa !136
  store ptr %1, ptr %5, align 8, !tbaa !76
  store i32 %2, ptr %6, align 4, !tbaa !11
  %7 = load ptr, ptr %4, align 8
  %8 = getelementptr inbounds nuw %struct.hb_array_t.20, ptr %7, i32 0, i32 0
  %9 = load ptr, ptr %5, align 8, !tbaa !76
  store ptr %9, ptr %8, align 8, !tbaa !138
  %10 = getelementptr inbounds nuw %struct.hb_array_t.20, ptr %7, i32 0, i32 1
  %11 = load i32, ptr %6, align 4, !tbaa !11
  store i32 %11, ptr %10, align 8, !tbaa !140
  %12 = getelementptr inbounds nuw %struct.hb_array_t.20, ptr %7, i32 0, i32 2
  store i32 0, ptr %12, align 4, !tbaa !309
  ret void
}

; Function Attrs: mustprogress nounwind uwtable
define linkonce_odr dso_local { ptr, i64 } @_ZN10hb_array_tIiEcvS_IKiEEv(ptr noundef nonnull align 8 dereferenceable(16) %0) #0 comdat align 2 {
  %2 = alloca %struct.hb_array_t.16, align 8
  %3 = alloca ptr, align 8
  store ptr %0, ptr %3, align 8, !tbaa !136
  %4 = load ptr, ptr %3, align 8
  %5 = getelementptr inbounds nuw %struct.hb_array_t.20, ptr %4, i32 0, i32 0
  %6 = load ptr, ptr %5, align 8, !tbaa !138
  %7 = getelementptr inbounds nuw %struct.hb_array_t.20, ptr %4, i32 0, i32 1
  %8 = load i32, ptr %7, align 8, !tbaa !140
  call void @_ZN10hb_array_tIKiEC2EPS0_j(ptr noundef nonnull align 8 dereferenceable(16) %2, ptr noundef %6, i32 noundef %8)
  %9 = load { ptr, i64 }, ptr %2, align 8
  ret { ptr, i64 } %9
}

; Function Attrs: inlinehint mustprogress nounwind uwtable
define linkonce_odr dso_local { ptr, i64 } @_Z8hb_arrayIiE10hb_array_tIT_EPS1_j(ptr noundef %0, i32 noundef %1) #3 comdat {
  %3 = alloca %struct.hb_array_t.20, align 8
  %4 = alloca ptr, align 8
  %5 = alloca i32, align 4
  store ptr %0, ptr %4, align 8, !tbaa !76
  store i32 %1, ptr %5, align 4, !tbaa !11
  %6 = load ptr, ptr %4, align 8, !tbaa !76
  %7 = load i32, ptr %5, align 4, !tbaa !11
  call void @_ZN10hb_array_tIiEC2EPij(ptr noundef nonnull align 8 dereferenceable(16) %3, ptr noundef %6, i32 noundef %7)
  %8 = load { ptr, i64 }, ptr %3, align 8
  ret { ptr, i64 } %8
}

; Function Attrs: mustprogress nounwind uwtable
define hidden noundef zeroext i1 @_ZNK2OT4cff213accelerator_t8get_pathEP9hb_font_tjR17hb_draw_session_t(ptr noundef nonnull align 8 dereferenceable(196) %0, ptr noundef %1, i32 noundef %2, ptr noundef nonnull align 8 dereferenceable(72) %3) #0 align 2 {
  %5 = alloca ptr, align 8
  %6 = alloca ptr, align 8
  %7 = alloca i32, align 4
  %8 = alloca ptr, align 8
  %9 = alloca %struct.hb_array_t.16, align 8
  %10 = alloca %struct.hb_array_t.20, align 8
  store ptr %0, ptr %5, align 8, !tbaa !4
  store ptr %1, ptr %6, align 8, !tbaa !9
  store i32 %2, ptr %7, align 4, !tbaa !11
  store ptr %3, ptr %8, align 8, !tbaa !131
  %11 = load ptr, ptr %5, align 8
  %12 = load ptr, ptr %6, align 8, !tbaa !9
  %13 = load i32, ptr %7, align 4, !tbaa !11
  %14 = load ptr, ptr %8, align 8, !tbaa !131
  call void @llvm.lifetime.start.p0(i64 16, ptr %10) #10
  %15 = load ptr, ptr %6, align 8, !tbaa !9
  %16 = getelementptr inbounds nuw %struct.hb_font_t, ptr %15, i32 0, i32 23
  %17 = load ptr, ptr %16, align 8, !tbaa !39
  %18 = load ptr, ptr %6, align 8, !tbaa !9
  %19 = getelementptr inbounds nuw %struct.hb_font_t, ptr %18, i32 0, i32 22
  %20 = load i32, ptr %19, align 8, !tbaa !61
  %21 = call { ptr, i64 } @_Z8hb_arrayIiE10hb_array_tIT_EPS1_j(ptr noundef %17, i32 noundef %20)
  %22 = getelementptr inbounds nuw { ptr, i64 }, ptr %10, i32 0, i32 0
  %23 = extractvalue { ptr, i64 } %21, 0
  store ptr %23, ptr %22, align 8
  %24 = getelementptr inbounds nuw { ptr, i64 }, ptr %10, i32 0, i32 1
  %25 = extractvalue { ptr, i64 } %21, 1
  store i64 %25, ptr %24, align 8
  %26 = call { ptr, i64 } @_ZN10hb_array_tIiEcvS_IKiEEv(ptr noundef nonnull align 8 dereferenceable(16) %10)
  %27 = getelementptr inbounds nuw { ptr, i64 }, ptr %9, i32 0, i32 0
  %28 = extractvalue { ptr, i64 } %26, 0
  store ptr %28, ptr %27, align 8
  %29 = getelementptr inbounds nuw { ptr, i64 }, ptr %9, i32 0, i32 1
  %30 = extractvalue { ptr, i64 } %26, 1
  store i64 %30, ptr %29, align 8
  %31 = getelementptr inbounds nuw { ptr, i64 }, ptr %9, i32 0, i32 0
  %32 = load ptr, ptr %31, align 8
  %33 = getelementptr inbounds nuw { ptr, i64 }, ptr %9, i32 0, i32 1
  %34 = load i64, ptr %33, align 8
  %35 = call noundef zeroext i1 @_ZNK2OT4cff213accelerator_t11get_path_atEP9hb_font_tjR17hb_draw_session_t10hb_array_tIKiE(ptr noundef nonnull align 8 dereferenceable(196) %11, ptr noundef %12, i32 noundef %13, ptr noundef nonnull align 8 dereferenceable(72) %14, ptr %32, i64 %34)
  call void @llvm.lifetime.end.p0(i64 16, ptr %10) #10
  ret i1 %35
}