; Function Attrs: mustprogress nounwind uwtable
define hidden noundef zeroext i1 @_ZNK2OT4cff213accelerator_t8get_pathEP9hb_font_tjR17hb_draw_session_t(ptr noundef nonnull align 8 dereferenceable(196) %0, ptr noundef %1, i32 noundef %2, ptr noundef nonnull align 8 dereferenceable(72) %3) local_unnamed_addr #0 align 2 {
  %5 = getelementptr inbounds nuw i8, ptr %1, i64 128
  %6 = load ptr, ptr %5, align 8, !tbaa !33
  %7 = getelementptr inbounds nuw i8, ptr %1, i64 120
  %8 = load i32, ptr %7, align 8, !tbaa !56
  %.sroa.2.8.insert.ext.i = zext i32 %8 to i64
  %9 = tail call noundef zeroext i1 @_ZNK2OT4cff213accelerator_t11get_path_atEP9hb_font_tjR17hb_draw_session_t10hb_array_tIKiE(ptr noundef nonnull align 8 dereferenceable(196) %0, ptr noundef %1, i32 noundef %2, ptr noundef nonnull align 8 dereferenceable(72) %3, ptr %6, i64 %.sroa.2.8.insert.ext.i)
  ret i1 %9
}